target datalayout = "e-m:e-p270:32:32-p271:32:32-p272:64:64-i64:64-i128:128-f80:128-n8:16:32:64-S128"
target triple = "x86_64-pc-linux-gnu"

%"class.Json::Value" = type { %"union.Json::Value::ValueHolder", %struct.anon, %"class.Json::Value::Comments", i64, i64 }
%"union.Json::Value::ValueHolder" = type { i64 }
%struct.anon = type { i16, [2 x i8] }
%"class.Json::Value::Comments" = type { %"class.std::unique_ptr" }
%"class.std::unique_ptr" = type { %"struct.std::__uniq_ptr_data" }
%"struct.std::__uniq_ptr_data" = type { %"class.std::__uniq_ptr_impl" }
%"class.std::__uniq_ptr_impl" = type { %"class.std::tuple" }
%"class.std::tuple" = type { %"struct.std::_Tuple_impl" }
%"struct.std::_Tuple_impl" = type { %"struct.std::_Head_base.1" }
%"struct.std::_Head_base.1" = type { ptr }
%"class.Json::ValueIteratorBase" = type <{ %"struct.std::_Rb_tree_iterator", i8, [7 x i8] }>
%"struct.std::_Rb_tree_iterator" = type { ptr }
%"struct.std::pair" = type { %"class.Json::Value::CZString", %"class.Json::Value" }
%"class.Json::Value::CZString" = type <{ ptr, %union.anon, [4 x i8] }>
%union.anon = type { i32 }
%"struct.std::_Rb_tree_node_base" = type { i32, ptr, ptr, ptr }
%"struct.std::_Rb_tree_node" = type { %"struct.std::_Rb_tree_node_base", %"struct.__gnu_cxx::__aligned_membuf" }
%"struct.__gnu_cxx::__aligned_membuf" = type { [56 x i8] }

@_ZN4Json5Value8CZStringC1ERKS1_ = dso_local unnamed_addr alias void (ptr, ptr), ptr @_ZN4Json5Value8CZStringC2ERKS1_
@_ZN4Json5Value8CZStringD1Ev = dso_local unnamed_addr alias void (ptr), ptr @_ZN4Json5Value8CZStringD2Ev

; Function Attrs: mustprogress nounwind uwtable
define linkonce_odr dso_local noundef ptr @_ZN9__gnu_cxx16__aligned_membufISt4pairIKN4Json5Value8CZStringES3_EE7_M_addrEv(ptr noundef nonnull align 8 dereferenceable(56) %0) #5 comdat align 2 {
  %2 = alloca ptr, align 8
  store ptr %0, ptr %2, align 8
  %3 = load ptr, ptr %2, align 8
  %4 = getelementptr inbounds %"struct.__gnu_cxx::__aligned_membuf", ptr %3, i32 0, i32 0
  ret ptr %4
}

; Function Attrs: mustprogress nounwind uwtable
define linkonce_odr dso_local noundef ptr @_ZN9__gnu_cxx16__aligned_membufISt4pairIKN4Json5Value8CZStringES3_EE6_M_ptrEv(ptr noundef nonnull align 8 dereferenceable(56) %0) #5 comdat align 2 {
  %2 = alloca ptr, align 8
  store ptr %0, ptr %2, align 8
  %3 = load ptr, ptr %2, align 8
  %4 = call noundef ptr @_ZN9__gnu_cxx16__aligned_membufISt4pairIKN4Json5Value8CZStringES3_EE7_M_addrEv(ptr noundef nonnull align 8 dereferenceable(56) %3) #3
  ret ptr %4
}

; Function Attrs: mustprogress nounwind uwtable
define linkonce_odr dso_local noundef ptr @_ZNSt13_Rb_tree_nodeISt4pairIKN4Json5Value8CZStringES2_EE9_M_valptrEv(ptr noundef nonnull align 8 dereferenceable(88) %0) #5 comdat align 2 {
  %2 = alloca ptr, align 8
  store ptr %0, ptr %2, align 8
  %3 = load ptr, ptr %2, align 8
  %4 = getelementptr inbounds %"struct.std::_Rb_tree_node", ptr %3, i32 0, i32 1
  %5 = call noundef ptr @_ZN9__gnu_cxx16__aligned_membufISt4pairIKN4Json5Value8CZStringES3_EE6_M_ptrEv(ptr noundef nonnull align 8 dereferenceable(56) %4) #3
  ret ptr %5
}

; Function Attrs: mustprogress nounwind uwtable
define dso_local noundef i32 @_ZNK4Json5Value8CZString5indexEv(ptr noundef nonnull align 8 dereferenceable(12) %0) #5 align 2 {
  %2 = alloca ptr, align 8
  store ptr %0, ptr %2, align 8
  %3 = load ptr, ptr %2, align 8
  %4 = getelementptr inbounds %"class.Json::Value::CZString", ptr %3, i32 0, i32 1
  %5 = load i32, ptr %4, align 8
  ret i32 %5
}

; Function Attrs: mustprogress nounwind uwtable
define dso_local noundef ptr @_ZNK4Json5Value8CZString4dataEv(ptr noundef nonnull align 8 dereferenceable(12) %0) #5 align 2 {
  %2 = alloca ptr, align 8
  store ptr %0, ptr %2, align 8
  %3 = load ptr, ptr %2, align 8
  %4 = getelementptr inbounds %"class.Json::Value::CZString", ptr %3, i32 0, i32 0
  %5 = load ptr, ptr %4, align 8
  ret ptr %5
}

; Function Attrs: mustprogress nounwind uwtable
define linkonce_odr dso_local noundef nonnull align 8 dereferenceable(56) ptr @_ZNKSt17_Rb_tree_iteratorISt4pairIKN4Json5Value8CZStringES2_EEdeEv(ptr noundef nonnull align 8 dereferenceable(8) %0) #5 comdat align 2 {
  %2 = alloca ptr, align 8
  store ptr %0, ptr %2, align 8
  %3 = load ptr, ptr %2, align 8
  %4 = getelementptr inbounds %"struct.std::_Rb_tree_iterator", ptr %3, i32 0, i32 0
  %5 = load ptr, ptr %4, align 8
  %6 = call noundef ptr @_ZNSt13_Rb_tree_nodeISt4pairIKN4Json5Value8CZStringES2_EE9_M_valptrEv(ptr noundef nonnull align 8 dereferenceable(88) %5)
  ret ptr %6
}

; Function Attrs: mustprogress uwtable
define dso_local noundef i32 @_ZNK4Json17ValueIteratorBase5indexEv(ptr noundef nonnull align 8 dereferenceable(9) %0) #4 align 2 personality ptr @__gxx_personality_v0 {
  %2 = alloca i32, align 4
  %3 = alloca ptr, align 8
  %4 = alloca %"class.Json::Value::CZString", align 8
  %5 = alloca ptr, align 8
  %6 = alloca i32, align 4
  %7 = alloca i32, align 4
  store ptr %0, ptr %3, align 8
  %8 = load ptr, ptr %3, align 8
  %9 = getelementptr inbounds %"class.Json::ValueIteratorBase", ptr %8, i32 0, i32 0
  %10 = call noundef nonnull align 8 dereferenceable(56) ptr @_ZNKSt17_Rb_tree_iteratorISt4pairIKN4Json5Value8CZStringES2_EEdeEv(ptr noundef nonnull align 8 dereferenceable(8) %9) #3
  %11 = getelementptr inbounds %"struct.std::pair", ptr %10, i32 0, i32 0
  call void @_ZN4Json5Value8CZStringC1ERKS1_(ptr noundef nonnull align 8 dereferenceable(12) %4, ptr noundef nonnull align 8 dereferenceable(12) %11)
  %12 = invoke noundef ptr @_ZNK4Json5Value8CZString4dataEv(ptr noundef nonnull align 8 dereferenceable(12) %4)
          to label %13 unwind label %18

13:                                               ; preds = %1
  %14 = icmp ne ptr %12, null
  br i1 %14, label %22, label %15

15:                                               ; preds = %13
  %16 = invoke noundef i32 @_ZNK4Json5Value8CZString5indexEv(ptr noundef nonnull align 8 dereferenceable(12) %4)
          to label %17 unwind label %18

17:                                               ; preds = %15
  store i32 %16, ptr %2, align 4
  store i32 1, ptr %7, align 4
  br label %23

18:                                               ; preds = %15, %1
  %19 = landingpad { ptr, i32 }
          cleanup
  %20 = extractvalue { ptr, i32 } %19, 0
  store ptr %20, ptr %5, align 8
  %21 = extractvalue { ptr, i32 } %19, 1
  store i32 %21, ptr %6, align 4
  call void @_ZN4Json5Value8CZStringD1Ev(ptr noundef nonnull align 8 dereferenceable(12) %4) #3
  br label %25

22:                                               ; preds = %13
  store i32 -1, ptr %2, align 4
  store i32 1, ptr %7, align 4
  br label %23

23:                                               ; preds = %22, %17
  call void @_ZN4Json5Value8CZStringD1Ev(ptr noundef nonnull align 8 dereferenceable(12) %4) #3
  %24 = load i32, ptr %2, align 4
  ret i32 %24

25:                                               ; preds = %18
  %26 = load ptr, ptr %5, align 8
  %27 = load i32, ptr %6, align 4
  %28 = insertvalue { ptr, i32 } poison, ptr %26, 0
  %29 = insertvalue { ptr, i32 } %28, i32 %27, 1
  resume { ptr, i32 } %29
}